target datalayout = "e-m:e-p270:32:32-p271:32:32-p272:64:64-i64:64-i128:128-f80:128-n8:16:32:64-S128"
target triple = "x86_64-pc-linux-gnu"

%struct.diff_options = type { ptr, ptr, i32, i32, ptr, i32, ptr, i64, i64, ptr, ptr, ptr, ptr, %struct.diff_flags, i32, i32, i32, i32, i32, i32, i32, i32, i32, i32, i32, i32, i32, i32, i32, i32, i32, i32, i32, i32, i32, i32, ptr, i32, ptr, i32, i32, ptr, i64, i64, i32, i32, i32, i32, ptr, i32, i32, ptr, i32, i32, ptr, ptr, i32, [3 x i8], %struct.pathspec, ptr, ptr, ptr, ptr, ptr, ptr, ptr, ptr, i32, ptr, i32, i32, ptr, ptr, i32 }
%struct.diff_flags = type { i32, i32, i32, i32, i32, i32, i32, i32, i32, i32, i32, i32, i32, i32, i32, i32, i32, i32, i32, i32, i32, i32, i32, i32, i32, i32, i32, i32, i32, i32, i32, i32, i32, i32, i32 }
%struct.pathspec = type { i32, i8, i32, i32, ptr }
%struct.strbuf = type { i64, i64, ptr }
%struct.option = type { i32, i32, ptr, ptr, ptr, ptr, i32, ptr, i64, ptr, i64, ptr }

@.str.41 = private unnamed_addr constant [1 x i8] zeroinitializer, align 1
@.str.85 = private unnamed_addr constant [11 x i8] c"cumulative\00", align 1
@.str.87 = private unnamed_addr constant [16 x i8] c"dirstat-by-file\00", align 1
@.str.256 = private unnamed_addr constant [7 x i8] c"diff.c\00", align 1
@.str.298 = private unnamed_addr constant [6 x i8] c"files\00", align 1
@.str.331 = private unnamed_addr constant [41 x i8] c"option callback does not expect negation\00", align 1
@.str.334 = private unnamed_addr constant [36 x i8] c"how come --cumulative take a value?\00", align 1
@__const.parse_dirstat_opt.errmsg = private unnamed_addr constant %struct.strbuf { i64 0, i64 0, ptr @strbuf_slopbuf }, align 8
@.str.335 = private unnamed_addr constant [50 x i8] c"Failed to parse --dirstat/-X option parameter:\0A%s\00", align 1

; Function Attrs: nounwind uwtable
define internal i32 @parse_dirstat_opt(ptr noundef %0, ptr noundef %1) #0 {
  %3 = alloca ptr, align 8
  %4 = alloca ptr, align 8
  %5 = alloca %struct.strbuf, align 8
  store ptr %0, ptr %3, align 8, !tbaa !34
  store ptr %1, ptr %4, align 8, !tbaa !9
  call void @llvm.lifetime.start.p0(i64 24, ptr %5) #10
  call void @llvm.memcpy.p0.p0.i64(ptr align 8 %5, ptr align 8 @__const.parse_dirstat_opt.errmsg, i64 24, i1 false)
  %6 = load ptr, ptr %3, align 8, !tbaa !34
  %7 = load ptr, ptr %4, align 8, !tbaa !9
  %8 = call i32 @parse_dirstat_params(ptr noundef %6, ptr noundef %7, ptr noundef %5)
  %9 = icmp ne i32 %8, 0
  br i1 %9, label %10, label %14

10:                                               ; preds = %2
  %11 = call ptr @_(ptr noundef @.str.335)
  %12 = getelementptr inbounds nuw %struct.strbuf, ptr %5, i32 0, i32 2
  %13 = load ptr, ptr %12, align 8, !tbaa !31
  call void (ptr, ...) @die(ptr noundef %11, ptr noundef %13) #12
  unreachable

14:                                               ; preds = %2
  call void @strbuf_release(ptr noundef %5)
  %15 = load ptr, ptr %3, align 8, !tbaa !34
  %16 = getelementptr inbounds nuw %struct.diff_options, ptr %15, i32 0, i32 24
  %17 = load i32, ptr %16, align 4, !tbaa !202
  %18 = and i32 %17, -2049
  store i32 %18, ptr %16, align 4, !tbaa !202
  %19 = load ptr, ptr %3, align 8, !tbaa !34
  %20 = getelementptr inbounds nuw %struct.diff_options, ptr %19, i32 0, i32 24
  %21 = load i32, ptr %20, align 4, !tbaa !202
  %22 = or i32 %21, 64
  store i32 %22, ptr %20, align 4, !tbaa !202
  call void @llvm.lifetime.end.p0(i64 24, ptr %5) #10
  ret i32 1
}

; Function Attrs: nounwind uwtable
define internal i32 @diff_opt_dirstat(ptr noundef %0, ptr noundef %1, i32 noundef %2) #0 {
  %4 = alloca ptr, align 8
  %5 = alloca ptr, align 8
  %6 = alloca i32, align 4
  %7 = alloca ptr, align 8
  store ptr %0, ptr %4, align 8, !tbaa !217
  store ptr %1, ptr %5, align 8, !tbaa !9
  store i32 %2, ptr %6, align 4, !tbaa !16
  call void @llvm.lifetime.start.p0(i64 8, ptr %7) #10
  %8 = load ptr, ptr %4, align 8, !tbaa !217
  %9 = getelementptr inbounds nuw %struct.option, ptr %8, i32 0, i32 3
  %10 = load ptr, ptr %9, align 8, !tbaa !224
  store ptr %10, ptr %7, align 8, !tbaa !34
  br label %11

11:                                               ; preds = %3
  %12 = load i32, ptr %6, align 4, !tbaa !16
  %13 = icmp ne i32 %12, 0
  br i1 %13, label %14, label %15

14:                                               ; preds = %11
  call void (ptr, i32, ptr, ...) @BUG_fl(ptr noundef @.str.256, i32 noundef 5320, ptr noundef @.str.331) #12
  unreachable

15:                                               ; preds = %11
  br label %16

16:                                               ; preds = %15
  br label %17

17:                                               ; preds = %16
  %18 = load ptr, ptr %4, align 8, !tbaa !217
  %19 = getelementptr inbounds nuw %struct.option, ptr %18, i32 0, i32 2
  %20 = load ptr, ptr %19, align 8, !tbaa !223
  %21 = call i32 @strcmp(ptr noundef %20, ptr noundef @.str.85) #11
  %22 = icmp ne i32 %21, 0
  br i1 %22, label %28, label %23

23:                                               ; preds = %17
  %24 = load ptr, ptr %5, align 8, !tbaa !9
  %25 = icmp ne ptr %24, null
  br i1 %25, label %26, label %27

26:                                               ; preds = %23
  call void (ptr, i32, ptr, ...) @BUG_fl(ptr noundef @.str.256, i32 noundef 5323, ptr noundef @.str.334) #12
  unreachable

27:                                               ; preds = %23
  store ptr @.str.85, ptr %5, align 8, !tbaa !9
  br label %38

28:                                               ; preds = %17
  %29 = load ptr, ptr %4, align 8, !tbaa !217
  %30 = getelementptr inbounds nuw %struct.option, ptr %29, i32 0, i32 2
  %31 = load ptr, ptr %30, align 8, !tbaa !223
  %32 = call i32 @strcmp(ptr noundef %31, ptr noundef @.str.87) #11
  %33 = icmp ne i32 %32, 0
  br i1 %33, label %37, label %34

34:                                               ; preds = %28
  %35 = load ptr, ptr %7, align 8, !tbaa !34
  %36 = call i32 @parse_dirstat_opt(ptr noundef %35, ptr noundef @.str.298)
  br label %37

37:                                               ; preds = %34, %28
  br label %38

38:                                               ; preds = %37, %27
  %39 = load ptr, ptr %7, align 8, !tbaa !34
  %40 = load ptr, ptr %5, align 8, !tbaa !9
  %41 = icmp ne ptr %40, null
  br i1 %41, label %42, label %44

42:                                               ; preds = %38
  %43 = load ptr, ptr %5, align 8, !tbaa !9
  br label %45

44:                                               ; preds = %38
  br label %45

45:                                               ; preds = %44, %42
  %46 = phi ptr [ %43, %42 ], [ @.str.41, %44 ]
  %47 = call i32 @parse_dirstat_opt(ptr noundef %39, ptr noundef %46)
  call void @llvm.lifetime.end.p0(i64 8, ptr %7) #10
  ret i32 0
}