; Function Attrs: nounwind uwtable
define internal noundef i32 @diff_opt_dirstat(ptr noundef readonly captures(none) %0, ptr noundef %1, i32 noundef %2) #0 {
  %4 = alloca %struct.strbuf, align 8
  %5 = alloca %struct.strbuf, align 8
  %6 = getelementptr inbounds nuw i8, ptr %0, i64 16
  %7 = load ptr, ptr %6, align 8, !tbaa !215
  %.not = icmp eq i32 %2, 0
  br i1 %.not, label %9, label %8

8:                                                ; preds = %3
  tail call void (ptr, i32, ptr, ...) @BUG_fl(ptr noundef nonnull @.str.256, i32 noundef 5320, ptr noundef nonnull @.str.331) #34
  unreachable

9:                                                ; preds = %3
  %10 = getelementptr inbounds nuw i8, ptr %0, i64 8
  %11 = load ptr, ptr %10, align 8, !tbaa !214
  %12 = tail call i32 @strcmp(ptr noundef nonnull dereferenceable(1) %11, ptr noundef nonnull dereferenceable(11) @.str.85) #33
  %.not8 = icmp eq i32 %12, 0
  br i1 %.not8, label %13, label %15

13:                                               ; preds = %9
  %.not9 = icmp eq ptr %1, null
  br i1 %.not9, label %27, label %14

14:                                               ; preds = %13
  tail call void (ptr, i32, ptr, ...) @BUG_fl(ptr noundef nonnull @.str.256, i32 noundef 5323, ptr noundef nonnull @.str.334) #34
  unreachable

15:                                               ; preds = %9
  %16 = tail call i32 @strcmp(ptr noundef nonnull dereferenceable(1) %11, ptr noundef nonnull dereferenceable(16) @.str.87) #33
  %.not10 = icmp eq i32 %16, 0
  br i1 %.not10, label %17, label %27

17:                                               ; preds = %15
  call void @llvm.lifetime.start.p0(i64 24, ptr nonnull %5) #32
  call void @llvm.memcpy.p0.p0.i64(ptr noundef nonnull align 8 dereferenceable(24) %5, ptr noundef nonnull align 8 dereferenceable(24) @__const.run_textconv.buf, i64 24, i1 false)
  %18 = call fastcc i32 @parse_dirstat_params(ptr noundef %7, ptr noundef nonnull @.str.298, ptr noundef %5)
  %.not.i = icmp eq i32 %18, 0
  br i1 %.not.i, label %parse_dirstat_opt.exit, label %19

19:                                               ; preds = %17
  %20 = call fastcc ptr @_(ptr noundef nonnull @.str.335)
  %21 = getelementptr inbounds nuw i8, ptr %5, i64 16
  %22 = load ptr, ptr %21, align 8, !tbaa !24
  call void (ptr, ...) @die(ptr noundef %20, ptr noundef %22) #34
  unreachable

parse_dirstat_opt.exit:                           ; preds = %17
  call void @strbuf_release(ptr noundef nonnull %5) #32
  %23 = getelementptr inbounds nuw i8, ptr %7, i64 276
  %24 = load i32, ptr %23, align 4, !tbaa !195
  %25 = and i32 %24, -2113
  %26 = or disjoint i32 %25, 64
  store i32 %26, ptr %23, align 4, !tbaa !195
  call void @llvm.lifetime.end.p0(i64 24, ptr nonnull %5) #32
  br label %27

27:                                               ; preds = %13, %15, %parse_dirstat_opt.exit
  %.0 = phi ptr [ %1, %15 ], [ %1, %parse_dirstat_opt.exit ], [ @.str.85, %13 ]
  %.not11 = icmp eq ptr %.0, null
  %28 = select i1 %.not11, ptr @.str.41, ptr %.0
  call void @llvm.lifetime.start.p0(i64 24, ptr nonnull %4) #32
  call void @llvm.memcpy.p0.p0.i64(ptr noundef nonnull align 8 dereferenceable(24) %4, ptr noundef nonnull align 8 dereferenceable(24) @__const.run_textconv.buf, i64 24, i1 false)
  %29 = call fastcc i32 @parse_dirstat_params(ptr noundef %7, ptr noundef nonnull %28, ptr noundef %4)
  %.not.i12 = icmp eq i32 %29, 0
  br i1 %.not.i12, label %parse_dirstat_opt.exit13, label %30

30:                                               ; preds = %27
  %31 = call fastcc ptr @_(ptr noundef nonnull @.str.335)
  %32 = getelementptr inbounds nuw i8, ptr %4, i64 16
  %33 = load ptr, ptr %32, align 8, !tbaa !24
  call void (ptr, ...) @die(ptr noundef %31, ptr noundef %33) #34
  unreachable

parse_dirstat_opt.exit13:                         ; preds = %27
  call void @strbuf_release(ptr noundef nonnull %4) #32
  %34 = getelementptr inbounds nuw i8, ptr %7, i64 276
  %35 = load i32, ptr %34, align 4, !tbaa !195
  %36 = and i32 %35, -2113
  %37 = or disjoint i32 %36, 64
  store i32 %37, ptr %34, align 4, !tbaa !195
  call void @llvm.lifetime.end.p0(i64 24, ptr nonnull %4) #32
  ret i32 0
}